EXPORTS
	??0RSettingServer@@QAE@XZ @ 1 NONAME ; RSettingServer::RSettingServer(void)
	??1CSTIFTestFrameworkSettings@@UAE@XZ @ 2 NONAME ; CSTIFTestFrameworkSettings::~CSTIFTestFrameworkSettings(void)
	??1CTestModuleList@@UAE@XZ @ 3 NONAME ; CTestModuleList::~CTestModuleList(void)
	?AddCfgFile@CTestModuleInfo@@QAEHAAVTDesC16@@@Z @ 4 NONAME ; int CTestModuleInfo::AddCfgFile(class TDesC16 &)
	?AddConfigFile@RTestEngine@@QAEHABV?$TBuf@$0IA@@@ABV?$TBuf@$0BAA@@@@Z @ 5 NONAME ; int RTestEngine::AddConfigFile(class TBuf<128> const &, class TBuf<256> const &)
	?AddTestCaseResultToTestReport@RTestEngine@@QAEHABVTTestInfo@@ABVTFullTestResult@@H@Z @ 6 NONAME ; int RTestEngine::AddTestCaseResultToTestReport(class TTestInfo const &, class TFullTestResult const &, int)
	?AddTestModule@CTestModuleList@@QAEHAAVTDesC16@@@Z @ 7 NONAME ; int CTestModuleList::AddTestModule(class TDesC16 &)
	?AddTestModule@RTestEngine@@QAEHABV?$TBuf@$0IA@@@ABV?$TBuf@$0BAA@@@@Z @ 8 NONAME ; int RTestEngine::AddTestModule(class TBuf<128> const &, class TBuf<256> const &)
	?CancelAsyncRequest@RTestCase@@QAEHW4TTestCaseAsyncRequest@1@@Z @ 9 NONAME ; int RTestCase::CancelAsyncRequest(enum RTestCase::TTestCaseAsyncRequest)
	?CancelAsyncRequest@RTestEngine@@QAEHW4TTestEngineAsyncRequest@1@@Z @ 10 NONAME ; int RTestEngine::CancelAsyncRequest(enum RTestEngine::TTestEngineAsyncRequest)
	?Close@RSettingServer@@QAEXXZ @ 11 NONAME ; void RSettingServer::Close(void)
	?Close@RTestCase@@QAEXXZ @ 12 NONAME ; void RTestCase::Close(void)
	?Close@RTestEngine@@QAEXXZ @ 13 NONAME ; void RTestEngine::Close(void)
	?Connect@RSettingServer@@QAEHXZ @ 14 NONAME ; int RSettingServer::Connect(void)
	?Connect@RTestEngine@@QAEHXZ @ 15 NONAME ; int RTestEngine::Connect(void)
	?Count@CTestModuleList@@QAEHXZ @ 16 NONAME ; int CTestModuleList::Count(void)
	?CountCfgFiles@CTestModuleInfo@@QAEHXZ @ 17 NONAME ; int CTestModuleInfo::CountCfgFiles(void)
	?EnumerateTestCases@RTestEngine@@QAEXAAV?$TPckgBuf@H@@AAVTRequestStatus@@@Z @ 18 NONAME ; void RTestEngine::EnumerateTestCases(class TPckgBuf<int> &, class TRequestStatus &)
	?ErrorNotification@RTestEngine@@QAEXAAV?$TPckg@VTErrorNotification@@@@AAVTRequestStatus@@@Z @ 19 NONAME ; void RTestEngine::ErrorNotification(class TPckg<class TErrorNotification> &, class TRequestStatus &)
	?Event@RTestEngine@@QAEXAAV?$TPckg@VTEventIf@@@@AAVTRequestStatus@@@Z @ 20 NONAME ; void RTestEngine::Event(class TPckg<class TEventIf> &, class TRequestStatus &)
	?GetBooleanSettingsL@CSTIFTestFrameworkSettings@@QAEHPAVCStifSectionParser@@VTPtrC16@@AAH@Z @ 21 NONAME ; int CSTIFTestFrameworkSettings::GetBooleanSettingsL(class CStifSectionParser *, class TPtrC16, int &)
	?GetCfgFileName@CTestCaseFileInfo@@QAEHAAVTDes16@@@Z @ 22 NONAME ; int CTestCaseFileInfo::GetCfgFileName(class TDes16 &)
	?GetCfgFileName@CTestModuleInfo@@QAEHHAAVTDes16@@@Z @ 23 NONAME ; int CTestModuleInfo::GetCfgFileName(int, class TDes16 &)
	?GetFileSetting@CSTIFTestFrameworkSettings@@QAEHPAVCStifSectionParser@@VTPtrC16@@AAV3@@Z @ 24 NONAME ; int CSTIFTestFrameworkSettings::GetFileSetting(class CStifSectionParser *, class TPtrC16, class TPtrC16 &)
	?GetFormatL@CSTIFTestFrameworkSettings@@QAEHPAVCStifSectionParser@@VTPtrC16@@AAW4TLoggerType@CStifLogger@@@Z @ 25 NONAME ; int CSTIFTestFrameworkSettings::GetFormatL(class CStifSectionParser *, class TPtrC16, enum CStifLogger::TLoggerType &)
	?GetFormatL@CSTIFTestFrameworkSettings@@QAEHPAVCStifSectionParser@@VTPtrC16@@AAW4TLoggerType@CStifLogger@@AAH@Z @ 26 NONAME ; int CSTIFTestFrameworkSettings::GetFormatL(class CStifSectionParser *, class TPtrC16, enum CStifLogger::TLoggerType &, int &)
	?GetIniFileName@CTestModuleInfo@@QAEHAAVTDes16@@@Z @ 27 NONAME ; int CTestModuleInfo::GetIniFileName(class TDes16 &)
	?GetLoggerSettings@RSettingServer@@QAEHAAUTLoggerSettings@@@Z @ 28 NONAME ; int RSettingServer::GetLoggerSettings(struct TLoggerSettings &)
	?GetModule@CTestModuleList@@QAEPAVCTestModuleInfo@@AAVTDesC16@@@Z @ 29 NONAME ; class CTestModuleInfo * CTestModuleList::GetModule(class TDesC16 &)
	?GetModule@CTestModuleList@@QAEPAVCTestModuleInfo@@H@Z @ 30 NONAME ; class CTestModuleInfo * CTestModuleList::GetModule(int)
	?GetModuleName@CTestModuleInfo@@QAEHAAVTDes16@@@Z @ 31 NONAME ; int CTestModuleInfo::GetModuleName(class TDes16 &)
	?GetOutputL@CSTIFTestFrameworkSettings@@QAEHPAVCStifSectionParser@@VTPtrC16@@AAW4TOutput@CStifLogger@@@Z @ 32 NONAME ; int CSTIFTestFrameworkSettings::GetOutputL(class CStifSectionParser *, class TPtrC16, enum CStifLogger::TOutput &)
	?GetOverwriteL@CSTIFTestFrameworkSettings@@QAEHPAVCStifSectionParser@@VTPtrC16@@AAH@Z @ 33 NONAME ; int CSTIFTestFrameworkSettings::GetOverwriteL(class CStifSectionParser *, class TPtrC16, int &)
	?GetReportModeL@CSTIFTestFrameworkSettings@@QAEHPAVCStifSectionParser@@VTPtrC16@@AAI@Z @ 34 NONAME ; int CSTIFTestFrameworkSettings::GetReportModeL(class CStifSectionParser *, class TPtrC16, unsigned int &)
	?GetTestCases@RTestEngine@@QAEHAAV?$CFixedFlatArray@VTTestInfo@@@@@Z @ 35 NONAME ; int RTestEngine::GetTestCases(class CFixedFlatArray<class TTestInfo> &)
	?GetUncheckedCfgFile@CTestModuleList@@QAEPAVCTestCaseFileInfo@@XZ @ 36 NONAME ; class CTestCaseFileInfo * CTestModuleList::GetUncheckedCfgFile(void)
	?LoadConfiguration@RTestEngine@@QAEHABV?$TBuf@$0BAA@@@@Z @ 37 NONAME ; int RTestEngine::LoadConfiguration(class TBuf<256> const &)
	?LoadLoggerSettingsFromIniFile@RSettingServer@@QAEHAAUTLoggerSettings@@ABVTDesC16@@H@Z @ 38 NONAME ; int RSettingServer::LoadLoggerSettingsFromIniFile(struct TLoggerSettings &, class TDesC16 const &, int)
	?NewL@CSTIFTestFrameworkSettings@@SAPAV1@XZ @ 39 NONAME ; class CSTIFTestFrameworkSettings * CSTIFTestFrameworkSettings::NewL(void)
	?NewL@CTestModuleList@@SAPAV1@PAVCStifLogger@@@Z @ 40 NONAME ; class CTestModuleList * CTestModuleList::NewL(class CStifLogger *)
	?NotifyProgress@RTestCase@@QAEXAAV?$TPckg@VTTestProgress@@@@AAVTRequestStatus@@@Z @ 41 NONAME ; void RTestCase::NotifyProgress(class TPckg<class TTestProgress> &, class TRequestStatus &)
	?NotifyRemoteMsg@RTestCase@@QAEHAAVTDes8@@W4TStifCommand@@@Z @ 42 NONAME ; int RTestCase::NotifyRemoteMsg(class TDes8 &, enum TStifCommand)
	?NotifyRemoteType@RTestCase@@QAEXAAV?$TPckg@W4TStifCommand@@@@AAV?$TPckg@H@@AAVTRequestStatus@@@Z @ 43 NONAME ; void RTestCase::NotifyRemoteType(class TPckg<enum TStifCommand> &, class TPckg<int> &, class TRequestStatus &)
	?Open@RTestCase@@QAEHAAVRTestEngine@@ABV?$TPckg@VTTestInfo@@@@@Z @ 44 NONAME ; int RTestCase::Open(class RTestEngine &, class TPckg<class TTestInfo> const &)
	?OpenLoggerSession@RTestEngine@@QAEHAAUTLoggerSettings@@@Z @ 45 NONAME ; int RTestEngine::OpenLoggerSession(struct TLoggerSettings &)
	?Pause@RTestCase@@QAEHXZ @ 46 NONAME ; int RTestCase::Pause(void)
	?RemoveConfigFile@RTestEngine@@QAEHABV?$TBuf@$0IA@@@ABV?$TBuf@$0BAA@@@@Z @ 47 NONAME ; int RTestEngine::RemoveConfigFile(class TBuf<128> const &, class TBuf<256> const &)
	?RemoveTestModule@RTestEngine@@QAEHABV?$TBuf@$0IA@@@@Z @ 48 NONAME ; int RTestEngine::RemoveTestModule(class TBuf<128> const &)
	?Resume@RTestCase@@QAEHXZ @ 49 NONAME ; int RTestCase::Resume(void)
	?RunTestCase@RTestCase@@QAEXAAV?$TPckg@VTFullTestResult@@@@AAVTRequestStatus@@@Z @ 50 NONAME ; void RTestCase::RunTestCase(class TPckg<class TFullTestResult> &, class TRequestStatus &)
	?SetAttribute@RTestEngine@@QAEHW4TAttribute@@ABVTDesC16@@@Z @ 51 NONAME ; int RTestEngine::SetAttribute(enum TAttribute, class TDesC16 const &)
	?SetChecked@CTestCaseFileInfo@@QAEXXZ @ 52 NONAME ; void CTestCaseFileInfo::SetChecked(void)
	?SetIniFile@CTestModuleInfo@@QAEHAAVTDesC16@@@Z @ 53 NONAME ; int CTestModuleInfo::SetIniFile(class TDesC16 &)
	?SetLoggerOutputPath@RSettingServer@@QAEHABVTDesC16@@@Z @ 54 NONAME ; int RSettingServer::SetLoggerOutputPath(class TDesC16 const &)
	?StartNewSettingServer@@YAHXZ @ 55 NONAME ; int StartNewSettingServer(void)
	?Version@RSettingServer@@QBE?AVTVersion@@XZ @ 56 NONAME ; class TVersion RSettingServer::Version(void) const
	?Version@RTestEngine@@QBE?AVTVersion@@XZ @ 57 NONAME ; class TVersion RTestEngine::Version(void) const
	?ResetLoggerSettings@RSettingServer@@QAEHXZ @ 58 NONAME ; int RSettingServer::ResetLoggerSettings(void)
	?UpdateEngineConfiguration@RTestEngine@@QAEHAAVTDesC16@@@Z @ 59 NONAME ; int RTestEngine::UpdateEngineConfiguration(class TDesC16 &)
	?UpdateLogConfiguration@RTestEngine@@QAEHAAVTDesC16@@@Z @ 60 NONAME ; int RTestEngine::UpdateLogConfiguration(class TDesC16 &)
	?LoadLoggerSettingsFromCommandLine@RSettingServer@@QAEHAAVTDesC16@@@Z @ 61 NONAME ; int RSettingServer::LoadLoggerSettingsFromCommandLine(class TDesC16 &)

